; Function Attrs: mustprogress uwtable
define void @_ZN4YAML15SingleDocParser8ParseTagERNSt7__cxx1112basic_stringIcSt11char_traitsIcESaIcEEE(ptr nocapture noundef nonnull readonly align 8 dereferenceable(88) %this, ptr noundef nonnull align 8 dereferenceable(32) %tag) local_unnamed_addr #4 align 2 personality ptr @__gxx_personality_v0 {
entry:
  %ref.tmp = alloca %"class.std::__cxx11::basic_string", align 8
  %ref.tmp3 = alloca %"class.std::allocator", align 1
  %tagInfo = alloca %"struct.YAML::Tag", align 8
  %ref.tmp7 = alloca %"class.std::__cxx11::basic_string", align 8
  %m_scanner = getelementptr inbounds i8, ptr %this, i64 8
  %0 = load ptr, ptr %m_scanner, align 8
  %call = tail call noundef nonnull align 8 dereferenceable(84) ptr @_ZN4YAML7Scanner4peekEv(ptr noundef nonnull align 8 dereferenceable(480) %0)
  %call2 = tail call noundef zeroext i1 @_ZNKSt7__cxx1112basic_stringIcSt11char_traitsIcESaIcEE5emptyEv(ptr noundef nonnull align 8 dereferenceable(32) %tag) #16
  br i1 %call2, label %if.end, label %if.then

if.then:                                          ; preds = %entry
  %exception = tail call ptr @__cxa_allocate_exception(i64 64) #16
  call void @_ZNSaIcEC1Ev(ptr noundef nonnull align 1 dereferenceable(1) %ref.tmp3) #16
  invoke void @_ZNSt7__cxx1112basic_stringIcSt11char_traitsIcESaIcEEC1EPKcRKS3_(ptr noundef nonnull align 8 dereferenceable(32) %ref.tmp, ptr noundef nonnull @.str.29, ptr noundef nonnull align 1 dereferenceable(1) %ref.tmp3)
          to label %invoke.cont unwind label %ehcleanup.thread

invoke.cont:                                      ; preds = %if.then
  %mark = getelementptr inbounds i8, ptr %call, i64 8
  invoke void @_ZN4YAML15ParserExceptionC2ERKNS_4MarkERKNSt7__cxx1112basic_stringIcSt11char_traitsIcESaIcEEE(ptr noundef nonnull align 8 dereferenceable(64) %exception, ptr noundef nonnull align 4 dereferenceable(12) %mark, ptr noundef nonnull align 8 dereferenceable(32) %ref.tmp)
          to label %invoke.cont5 unwind label %ehcleanup

invoke.cont5:                                     ; preds = %invoke.cont
  invoke void @__cxa_throw(ptr nonnull %exception, ptr nonnull @_ZTIN4YAML15ParserExceptionE, ptr nonnull @_ZN4YAML15ParserExceptionD1Ev) #20
          to label %unreachable unwind label %ehcleanup

ehcleanup.thread:                                 ; preds = %if.then
  %1 = landingpad { ptr, i32 }
          cleanup
  call void @_ZNSaIcED1Ev(ptr noundef nonnull align 1 dereferenceable(1) %ref.tmp3) #16
  br label %cleanup.action

ehcleanup:                                        ; preds = %invoke.cont, %invoke.cont5
  %cleanup.isactive.0 = phi i1 [ false, %invoke.cont5 ], [ true, %invoke.cont ]
  %2 = landingpad { ptr, i32 }
          cleanup
  call void @_ZNSt7__cxx1112basic_stringIcSt11char_traitsIcESaIcEED1Ev(ptr noundef nonnull align 8 dereferenceable(32) %ref.tmp) #16
  call void @_ZNSaIcED1Ev(ptr noundef nonnull align 1 dereferenceable(1) %ref.tmp3) #16
  br i1 %cleanup.isactive.0, label %cleanup.action, label %eh.resume

cleanup.action:                                   ; preds = %ehcleanup.thread, %ehcleanup
  %.pn10 = phi { ptr, i32 } [ %1, %ehcleanup.thread ], [ %2, %ehcleanup ]
  call void @__cxa_free_exception(ptr %exception) #16
  br label %eh.resume

if.end:                                           ; preds = %entry
  call void @_ZN4YAML3TagC1ERKNS_5TokenE(ptr noundef nonnull align 8 dereferenceable(72) %tagInfo, ptr noundef nonnull align 8 dereferenceable(84) %call)
  %m_directives = getelementptr inbounds i8, ptr %this, i64 16
  %3 = load ptr, ptr %m_directives, align 8
  invoke void @_ZN4YAML3Tag9TranslateB5cxx11ERKNS_10DirectivesE(ptr nonnull sret(%"class.std::__cxx11::basic_string") align 8 %ref.tmp7, ptr noundef nonnull align 8 dereferenceable(72) %tagInfo, ptr noundef nonnull align 1 %3)
          to label %invoke.cont9 unwind label %lpad8

invoke.cont9:                                     ; preds = %if.end
  %call10 = call noundef nonnull align 8 dereferenceable(32) ptr @_ZNSt7__cxx1112basic_stringIcSt11char_traitsIcESaIcEEaSEOS4_(ptr noundef nonnull align 8 dereferenceable(32) %tag, ptr noundef nonnull align 8 dereferenceable(32) %ref.tmp7) #16
  call void @_ZNSt7__cxx1112basic_stringIcSt11char_traitsIcESaIcEED1Ev(ptr noundef nonnull align 8 dereferenceable(32) %ref.tmp7) #16
  %4 = load ptr, ptr %m_scanner, align 8
  invoke void @_ZN4YAML7Scanner3popEv(ptr noundef nonnull align 8 dereferenceable(480) %4)
          to label %invoke.cont12 unwind label %lpad8

invoke.cont12:                                    ; preds = %invoke.cont9
  %value.i = getelementptr inbounds i8, ptr %tagInfo, i64 40
  call void @_ZNSt7__cxx1112basic_stringIcSt11char_traitsIcESaIcEED1Ev(ptr noundef nonnull align 8 dereferenceable(32) %value.i) #16
  %handle.i = getelementptr inbounds i8, ptr %tagInfo, i64 8
  call void @_ZNSt7__cxx1112basic_stringIcSt11char_traitsIcESaIcEED1Ev(ptr noundef nonnull align 8 dereferenceable(32) %handle.i) #16
  ret void

lpad8:                                            ; preds = %invoke.cont9, %if.end
  %5 = landingpad { ptr, i32 }
          cleanup
  %value.i6 = getelementptr inbounds i8, ptr %tagInfo, i64 40
  call void @_ZNSt7__cxx1112basic_stringIcSt11char_traitsIcESaIcEED1Ev(ptr noundef nonnull align 8 dereferenceable(32) %value.i6) #16
  %handle.i7 = getelementptr inbounds i8, ptr %tagInfo, i64 8
  call void @_ZNSt7__cxx1112basic_stringIcSt11char_traitsIcESaIcEED1Ev(ptr noundef nonnull align 8 dereferenceable(32) %handle.i7) #16
  br label %eh.resume

eh.resume:                                        ; preds = %ehcleanup, %cleanup.action, %lpad8
  %.pn4 = phi { ptr, i32 } [ %5, %lpad8 ], [ %.pn10, %cleanup.action ], [ %2, %ehcleanup ]
  resume { ptr, i32 } %.pn4

unreachable:                                      ; preds = %invoke.cont5
  unreachable
}